target datalayout = "e-m:e-p270:32:32-p271:32:32-p272:64:64-i64:64-i128:128-f80:128-n8:16:32:64-S128"
target triple = "x86_64-pc-linux-gnu"

%struct.H5C_class_t = type { i32, ptr, i32, i32, ptr, ptr, ptr, ptr, ptr, ptr, ptr, ptr, ptr, ptr }
%struct.H5FS_t = type { %struct.H5C_cache_entry_t, i64, i64, i64, i64, i32, i16, i32, i32, i32, i64, i64, i64, i64, i32, i64, i64, ptr, i8, i32, i8, i8, i32, i64, i64, i64, ptr }
%struct.H5C_cache_entry_t = type { ptr, i64, i64, ptr, i8, ptr, i8, i8, i8, i8, i32, i8, i8, i8, i8, i8, i32, ptr, i32, i32, i32, i32, i32, i8, i8, ptr, ptr, ptr, ptr, ptr, ptr, i8, i32, i8, i64, ptr, i64, i64, i32, i8, i32, i32, i8, ptr, ptr, ptr }

@.str.2 = private unnamed_addr constant [98 x i8] c"generated/home/dtcxzyw/WorkSpace/Projects/compilers/llvm-opt-benchmark/bench/hdf5/hdf5/src/H5FS.c\00", align 1
@H5E_RESOURCE_g = external global i64, align 8
@H5E_NOSPACE_g = external global i64, align 8
@.str.4 = private unnamed_addr constant [45 x i8] c"file allocation failed for free space header\00", align 1
@H5AC_FSPACE_HDR = external constant [1 x %struct.H5C_class_t], align 16
@H5E_FSPACE_g = external global i64, align 8
@H5E_CANTINIT_g = external global i64, align 8
@.str.5 = private unnamed_addr constant [37 x i8] c"can't add free space header to cache\00", align 1
@__func__.H5FS_alloc_hdr = private unnamed_addr constant [15 x i8] c"H5FS_alloc_hdr\00", align 1

; Function Attrs: nounwind uwtable
define i32 @H5FS_alloc_hdr(ptr noundef %0, ptr noundef %1, ptr noundef %2) #0 {
  %4 = alloca ptr, align 8
  %5 = alloca ptr, align 8
  %6 = alloca ptr, align 8
  %7 = alloca i32, align 4
  %8 = alloca i8, align 1
  store ptr %0, ptr %4, align 8
  store ptr %1, ptr %5, align 8
  store ptr %2, ptr %6, align 8
  store i32 0, ptr %7, align 4
  store i8 0, ptr %8, align 1
  %9 = load ptr, ptr %5, align 8
  %10 = getelementptr inbounds %struct.H5FS_t, ptr %9, i32 0, i32 15
  %11 = load i64, ptr %10, align 8
  %12 = icmp ne i64 %11, -1
  br i1 %12, label %95, label %13

13:                                               ; preds = %3
  %14 = load ptr, ptr %4, align 8
  %15 = load ptr, ptr %4, align 8
  %16 = call zeroext i8 @H5F_sizeof_size(ptr noundef %15)
  %17 = zext i8 %16 to i32
  %18 = add i32 10, %17
  %19 = load ptr, ptr %4, align 8
  %20 = call zeroext i8 @H5F_sizeof_size(ptr noundef %19)
  %21 = zext i8 %20 to i32
  %22 = add i32 %18, %21
  %23 = load ptr, ptr %4, align 8
  %24 = call zeroext i8 @H5F_sizeof_size(ptr noundef %23)
  %25 = zext i8 %24 to i32
  %26 = add i32 %22, %25
  %27 = load ptr, ptr %4, align 8
  %28 = call zeroext i8 @H5F_sizeof_size(ptr noundef %27)
  %29 = zext i8 %28 to i32
  %30 = add i32 %26, %29
  %31 = add i32 %30, 2
  %32 = add i32 %31, 2
  %33 = add i32 %32, 2
  %34 = add i32 %33, 2
  %35 = load ptr, ptr %4, align 8
  %36 = call zeroext i8 @H5F_sizeof_size(ptr noundef %35)
  %37 = zext i8 %36 to i32
  %38 = add i32 %34, %37
  %39 = load ptr, ptr %4, align 8
  %40 = call zeroext i8 @H5F_sizeof_addr(ptr noundef %39)
  %41 = zext i8 %40 to i32
  %42 = add i32 %38, %41
  %43 = load ptr, ptr %4, align 8
  %44 = call zeroext i8 @H5F_sizeof_size(ptr noundef %43)
  %45 = zext i8 %44 to i32
  %46 = add i32 %42, %45
  %47 = load ptr, ptr %4, align 8
  %48 = call zeroext i8 @H5F_sizeof_size(ptr noundef %47)
  %49 = zext i8 %48 to i32
  %50 = add i32 %46, %49
  %51 = zext i32 %50 to i64
  %52 = call i64 @H5MF_alloc(ptr noundef %14, i32 noundef 6, i64 noundef %51)
  %53 = load ptr, ptr %5, align 8
  %54 = getelementptr inbounds %struct.H5FS_t, ptr %53, i32 0, i32 15
  store i64 %52, ptr %54, align 8
  %55 = icmp eq i64 -1, %52
  br i1 %55, label %56, label %71

56:                                               ; preds = %13
  br label %57

57:                                               ; preds = %56
  br label %58

58:                                               ; preds = %57
  br label %59

59:                                               ; preds = %58
  %60 = load i64, ptr @H5E_RESOURCE_g, align 8
  %61 = load i64, ptr @H5E_NOSPACE_g, align 8
  %62 = call i32 (ptr, ptr, i32, i64, i64, ptr, ...) @H5E_printf_stack(ptr noundef @.str.2, ptr noundef @__func__.H5FS_alloc_hdr, i32 noundef 804, i64 noundef %60, i64 noundef %61, ptr noundef @.str.4)
  br label %63

63:                                               ; preds = %59
  store i8 1, ptr %8, align 1
  %64 = load i8, ptr %8, align 1
  %65 = trunc i8 %64 to i1
  %66 = zext i1 %65 to i8
  store i8 %66, ptr %8, align 1
  br label %67

67:                                               ; preds = %63
  br label %68

68:                                               ; preds = %67
  store i32 -1, ptr %7, align 4
  br label %104

69:                                               ; No predecessors!
  br label %70

70:                                               ; preds = %69
  br label %71

71:                                               ; preds = %70, %13
  %72 = load ptr, ptr %4, align 8
  %73 = load ptr, ptr %5, align 8
  %74 = getelementptr inbounds %struct.H5FS_t, ptr %73, i32 0, i32 15
  %75 = load i64, ptr %74, align 8
  %76 = load ptr, ptr %5, align 8
  %77 = call i32 @H5AC_insert_entry(ptr noundef %72, ptr noundef @H5AC_FSPACE_HDR, i64 noundef %75, ptr noundef %76, i32 noundef 4)
  %78 = icmp slt i32 %77, 0
  br i1 %78, label %79, label %94

79:                                               ; preds = %71
  br label %80

80:                                               ; preds = %79
  br label %81

81:                                               ; preds = %80
  br label %82

82:                                               ; preds = %81
  %83 = load i64, ptr @H5E_FSPACE_g, align 8
  %84 = load i64, ptr @H5E_CANTINIT_g, align 8
  %85 = call i32 (ptr, ptr, i32, i64, i64, ptr, ...) @H5E_printf_stack(ptr noundef @.str.2, ptr noundef @__func__.H5FS_alloc_hdr, i32 noundef 808, i64 noundef %83, i64 noundef %84, ptr noundef @.str.5)
  br label %86

86:                                               ; preds = %82
  store i8 1, ptr %8, align 1
  %87 = load i8, ptr %8, align 1
  %88 = trunc i8 %87 to i1
  %89 = zext i1 %88 to i8
  store i8 %89, ptr %8, align 1
  br label %90

90:                                               ; preds = %86
  br label %91

91:                                               ; preds = %90
  store i32 -1, ptr %7, align 4
  br label %104

92:                                               ; No predecessors!
  br label %93

93:                                               ; preds = %92
  br label %94

94:                                               ; preds = %93, %71
  br label %95

95:                                               ; preds = %94, %3
  %96 = load ptr, ptr %6, align 8
  %97 = icmp ne ptr %96, null
  br i1 %97, label %98, label %103

98:                                               ; preds = %95
  %99 = load ptr, ptr %5, align 8
  %100 = getelementptr inbounds %struct.H5FS_t, ptr %99, i32 0, i32 15
  %101 = load i64, ptr %100, align 8
  %102 = load ptr, ptr %6, align 8
  store i64 %101, ptr %102, align 8
  br label %103

103:                                              ; preds = %98, %95
  br label %104

104:                                              ; preds = %103, %91, %68
  %105 = load i32, ptr %7, align 4
  ret i32 %105
}