; Function Attrs: nounwind uwtable
define range(i32 -1, 1) i32 @H5FS_alloc_hdr(ptr noundef %0, ptr noundef %1, ptr noundef writeonly %2) local_unnamed_addr #0 {
  %4 = getelementptr inbounds i8, ptr %1, i64 344
  %5 = load i64, ptr %4, align 8
  %.not = icmp eq i64 %5, -1
  br i1 %.not, label %6, label %44

6:                                                ; preds = %3
  %7 = tail call zeroext i8 @H5F_sizeof_size(ptr noundef %0) #5
  %8 = zext i8 %7 to i64
  %9 = tail call zeroext i8 @H5F_sizeof_size(ptr noundef %0) #5
  %10 = zext i8 %9 to i64
  %11 = tail call zeroext i8 @H5F_sizeof_size(ptr noundef %0) #5
  %12 = zext i8 %11 to i64
  %13 = tail call zeroext i8 @H5F_sizeof_size(ptr noundef %0) #5
  %14 = zext i8 %13 to i64
  %15 = tail call zeroext i8 @H5F_sizeof_size(ptr noundef %0) #5
  %16 = zext i8 %15 to i64
  %17 = tail call zeroext i8 @H5F_sizeof_addr(ptr noundef %0) #5
  %18 = zext i8 %17 to i64
  %19 = tail call zeroext i8 @H5F_sizeof_size(ptr noundef %0) #5
  %20 = zext i8 %19 to i64
  %21 = tail call zeroext i8 @H5F_sizeof_size(ptr noundef %0) #5
  %22 = zext i8 %21 to i64
  %23 = add nuw nsw i64 %8, 18
  %24 = add nuw nsw i64 %23, %10
  %25 = add nuw nsw i64 %24, %12
  %26 = add nuw nsw i64 %25, %14
  %27 = add nuw nsw i64 %26, %16
  %28 = add nuw nsw i64 %27, %18
  %29 = add nuw nsw i64 %28, %20
  %30 = add nuw nsw i64 %29, %22
  %31 = tail call i64 @H5MF_alloc(ptr noundef %0, i32 noundef 6, i64 noundef %30) #5
  store i64 %31, ptr %4, align 8
  %32 = icmp eq i64 %31, -1
  br i1 %32, label %33, label %37

33:                                               ; preds = %6
  %34 = load i64, ptr @H5E_RESOURCE_g, align 8
  %35 = load i64, ptr @H5E_NOSPACE_g, align 8
  %36 = tail call i32 (ptr, ptr, i32, i64, i64, ptr, ...) @H5E_printf_stack(ptr noundef nonnull @.str.2, ptr noundef nonnull @__func__.H5FS_alloc_hdr, i32 noundef 804, i64 noundef %34, i64 noundef %35, ptr noundef nonnull @.str.4) #5
  br label %47

37:                                               ; preds = %6
  %38 = tail call i32 @H5AC_insert_entry(ptr noundef %0, ptr noundef nonnull @H5AC_FSPACE_HDR, i64 noundef %31, ptr noundef nonnull %1, i32 noundef 4) #5
  %39 = icmp slt i32 %38, 0
  br i1 %39, label %40, label %44

40:                                               ; preds = %37
  %41 = load i64, ptr @H5E_FSPACE_g, align 8
  %42 = load i64, ptr @H5E_CANTINIT_g, align 8
  %43 = tail call i32 (ptr, ptr, i32, i64, i64, ptr, ...) @H5E_printf_stack(ptr noundef nonnull @.str.2, ptr noundef nonnull @__func__.H5FS_alloc_hdr, i32 noundef 808, i64 noundef %41, i64 noundef %42, ptr noundef nonnull @.str.5) #5
  br label %47

44:                                               ; preds = %37, %3
  %.not21 = icmp eq ptr %2, null
  br i1 %.not21, label %47, label %45

45:                                               ; preds = %44
  %46 = load i64, ptr %4, align 8
  store i64 %46, ptr %2, align 8
  br label %47

47:                                               ; preds = %44, %45, %40, %33
  %.0 = phi i32 [ 0, %45 ], [ 0, %44 ], [ -1, %33 ], [ -1, %40 ]
  ret i32 %.0
}